target datalayout = "e-m:e-p270:32:32-p271:32:32-p272:64:64-i64:64-i128:128-f80:128-n8:16:32:64-S128"
target triple = "x86_64-pc-linux-gnu"

@id_chunk_categorize = internal global i64 0, align 8
@id_chunk_enumerable = internal global i64 0, align 8
@rb_cEnumerator = external global i64, align 8

; Function Attrs: nounwind sspstrong uwtable
define internal i64 @enum_chunk(i64 noundef %0) #0 {
  %2 = alloca i64, align 8
  %3 = alloca i64, align 8
  %4 = alloca i64, align 8
  %5 = alloca i64, align 8
  %6 = alloca i32, align 4
  store i64 %0, ptr %3, align 8, !tbaa !14
  call void @llvm.lifetime.start.p0(i64 8, ptr %4) #22
  br label %7

7:                                                ; preds = %1
  %8 = call i32 @rb_block_given_p()
  %9 = icmp ne i32 %8, 0
  br i1 %9, label %16, label %10

10:                                               ; preds = %7
  %11 = load i64, ptr %3, align 8, !tbaa !14
  %12 = call i64 @rb_frame_this_func()
  %13 = call i64 @rb_id2sym(i64 noundef %12)
  store i64 %13, ptr %5, align 8, !tbaa !14
  %14 = load i64, ptr %5, align 8, !tbaa !14
  %15 = call i64 @rb_enumeratorize_with_size(i64 noundef %11, i64 noundef %14, i32 noundef 0, ptr noundef null, ptr noundef @enum_size)
  store i64 %15, ptr %2, align 8
  store i32 1, ptr %6, align 4
  br label %33

16:                                               ; preds = %7
  br label %17

17:                                               ; preds = %16
  br label %18

18:                                               ; preds = %17
  %19 = load i64, ptr @rb_cEnumerator, align 8, !tbaa !14
  %20 = call i64 @rb_obj_alloc(i64 noundef %19)
  store i64 %20, ptr %4, align 8, !tbaa !14
  %21 = load i64, ptr %4, align 8, !tbaa !14
  %22 = load i64, ptr @id_chunk_enumerable, align 8, !tbaa !14
  %23 = load i64, ptr %3, align 8, !tbaa !14
  %24 = call i64 @rb_ivar_set(i64 noundef %21, i64 noundef %22, i64 noundef %23)
  %25 = load i64, ptr %4, align 8, !tbaa !14
  %26 = load i64, ptr @id_chunk_categorize, align 8, !tbaa !14
  %27 = call i64 @rb_block_proc()
  %28 = call i64 @rb_ivar_set(i64 noundef %25, i64 noundef %26, i64 noundef %27)
  %29 = load i64, ptr %4, align 8, !tbaa !14
  %30 = load i64, ptr %4, align 8, !tbaa !14
  %31 = call i64 @rb_block_call(i64 noundef %29, i64 noundef 3169, i32 noundef 0, ptr noundef null, ptr noundef @chunk_i, i64 noundef %30)
  %32 = load i64, ptr %4, align 8, !tbaa !14
  store i64 %32, ptr %2, align 8
  store i32 1, ptr %6, align 4
  br label %33

33:                                               ; preds = %18, %10
  call void @llvm.lifetime.end.p0(i64 8, ptr %4) #22
  %34 = load i64, ptr %2, align 8
  ret i64 %34
}