; Function Attrs: nounwind sspstrong uwtable
define internal i64 @enum_chunk(i64 noundef %0) #0 {
  %2 = tail call i32 @rb_block_given_p() #14
  %.not = icmp eq i32 %2, 0
  br i1 %.not, label %3, label %7

3:                                                ; preds = %1
  %4 = tail call i64 @rb_frame_this_func() #14
  %5 = tail call i64 @rb_id2sym(i64 noundef %4) #14
  %6 = tail call i64 @rb_enumeratorize_with_size(i64 noundef %0, i64 noundef %5, i32 noundef 0, ptr noundef null, ptr noundef nonnull @enum_size) #14
  br label %16

7:                                                ; preds = %1
  %8 = load i64, ptr @rb_cEnumerator, align 8, !tbaa !7
  %9 = tail call i64 @rb_obj_alloc(i64 noundef %8) #14
  %10 = load i64, ptr @id_chunk_enumerable, align 8, !tbaa !7
  %11 = tail call i64 @rb_ivar_set(i64 noundef %9, i64 noundef %10, i64 noundef %0) #14
  %12 = load i64, ptr @id_chunk_categorize, align 8, !tbaa !7
  %13 = tail call i64 @rb_block_proc() #14
  %14 = tail call i64 @rb_ivar_set(i64 noundef %9, i64 noundef %12, i64 noundef %13) #14
  %15 = tail call i64 @rb_block_call(i64 noundef %9, i64 noundef 3169, i32 noundef 0, ptr noundef null, ptr noundef nonnull @chunk_i, i64 noundef %9) #14
  br label %16

16:                                               ; preds = %7, %3
  %.0 = phi i64 [ %9, %7 ], [ %6, %3 ]
  ret i64 %.0
}